(lp0
(S'arduino_arch_libraries_dir'
p1
S'/usr/share/arduino/hardware/arduino/sam/libraries'
p2
tp3
a(S'recipe.cpp.o.pattern'
p4
S'"/usr/share/arduino//hardware/tools/g++_arm_none_eabi/bin/arm-none-eabi-g++" -c -g -Os -w -ffunction-sections -fdata-sections -nostdlib --param max-inline-insns-single=500 -fno-rtti -fno-exceptions -Dprintf=iprintf -mcpu=cortex-m3 -DF_CPU=84000000L -DARDUINO=156 -DARDUINO_SAM_DUE -DARDUINO_ARCH_SAM -D__SAM3X8E__ -mthumb -DUSB_VID=0x2341 -DUSB_PID=0x003e -DUSBCON \'-DUSB_MANUFACTURER="Unknown"\' \'-DUSB_PRODUCT="Arduino Due"\' "-I/usr/share/arduino/hardware/arduino/sam/system/libsam" "-I/usr/share/arduino/hardware/arduino/sam/system/CMSIS/CMSIS/Include/" "-I/usr/share/arduino/hardware/arduino/sam/system/CMSIS/Device/ATMEL/" {includes} "{source_file}" -o "{object_file}"'
p5
tp6
a(S'cc'
p7
S'/usr/share/arduino/hardware/tools/g++_arm_none_eabi/bin/arm-none-eabi-gcc'
p8
tp9
a(S'recipe.objcopy.eep.pattern'
p10
S''
p11
tp12
a(S'arduino_libraries_dir'
p13
S'/usr/share/arduino/libraries'
p14
tp15
a(S'platforms'
p16
ccollections
OrderedDict
p17
((lp18
(lp19
S'sam'
p20
acino.environment
ArduinoData
p21
((lp22
(lp23
S'name'
p24
aS'Arduino ARM (32-bits) Boards'
p25
aa(lp26
S'version'
p27
aS'1.5.6'
p28
aa(lp29
S'compiler'
p30
a(dp31
S'c'
p32
(dp33
S'elf'
p34
(dp35
S'cmd'
p36
S'arm-none-eabi-g++'
p37
sS'flags'
p38
S'-Os -Wl,--gc-sections'
p39
ssS'cmd'
p40
S'arm-none-eabi-gcc'
p41
sS'flags'
p42
S'-c -g -Os -w -ffunction-sections -fdata-sections -nostdlib --param max-inline-insns-single=500 -Dprintf=iprintf'
p43
ssS'define'
p44
S'-DARDUINO='
p45
sS'elf2hex'
p46
(dp47
S'cmd'
p48
S'arm-none-eabi-objcopy'
p49
sS'flags'
p50
S'-O binary'
p51
ssS'S'
p52
(dp53
S'flags'
p54
S'-c -g -x assembler-with-cpp'
p55
ssS'ar'
p56
(dp57
S'cmd'
p58
S'arm-none-eabi-ar'
p59
sS'flags'
p60
S'rcs'
p61
ssS'libsam'
p62
(dp63
g32
(dp64
S'flags'
p65
S'"-I{build.system.path}/libsam" "-I{build.system.path}/CMSIS/CMSIS/Include/" "-I{build.system.path}/CMSIS/Device/ATMEL/"'
p66
sssS'ldflags'
p67
g11
sS'cpp'
p68
(dp69
S'cmd'
p70
S'arm-none-eabi-g++'
p71
sS'flags'
p72
S'-c -g -Os -w -ffunction-sections -fdata-sections -nostdlib --param max-inline-insns-single=500 -fno-rtti -fno-exceptions -Dprintf=iprintf'
p73
ssS'path'
p74
S'{runtime.ide.path}/hardware/tools/g++_arm_none_eabi/bin/'
p75
sS'objcopy'
p76
(dp77
S'cmd'
p78
S'arm-none-eabi-objcopy'
p79
sS'eep'
p80
(dp81
S'flags'
p82
S'-O ihex -j .eeprom --set-section-flags=.eeprom=alloc,load --no-change-warnings --change-section-lma .eeprom=0'
p83
sssS'size'
p84
(dp85
S'cmd'
p86
S'arm-none-eabi-size'
p87
ssaa(lp88
S'build'
p89
a(dp90
S'usb_manufacturer'
p91
S'"Unknown"'
p92
sS'usb_flags'
p93
S"-DUSB_VID={build.vid} -DUSB_PID={build.pid} -DUSBCON '-DUSB_MANUFACTURER={build.usb_manufacturer}' '-DUSB_PRODUCT={build.usb_product}'"
p94
sS'extra_flags'
p95
g11
saa(lp96
S'recipe'
p97
a(dp98
S'cpp'
p99
(dp100
S'o'
p101
(dp102
S'pattern'
p103
S'"{compiler.path}{compiler.cpp.cmd}" {compiler.cpp.flags} -mcpu={build.mcu} -DF_CPU={build.f_cpu} -DARDUINO={runtime.ide.version} -DARDUINO_{build.board} -DARDUINO_ARCH_{build.arch} {build.extra_flags} {compiler.libsam.c.flags} {includes} "{source_file}" -o "{object_file}"'
p104
sssg32
(dp105
S'combine'
p106
(dp107
S'pattern'
p108
S'"{compiler.path}{compiler.c.elf.cmd}" {compiler.c.elf.flags} -mcpu={build.mcu} "-T{build.variant.path}/{build.ldscript}" "-Wl,-Map,{build.path}/{build.project_name}.map" -o "{build.path}/{build.project_name}.elf" "-L{build.path}" -lm -lgcc -mthumb -Wl,--cref -Wl,--check-sections -Wl,--gc-sections -Wl,--entry=Reset_Handler -Wl,--unresolved-symbols=report-all -Wl,--warn-common -Wl,--warn-section-align -Wl,--warn-unresolved-symbols -Wl,--start-group "{build.path}/syscalls_sam3.c.o" {object_files} "{build.variant.path}/{build.variant_system_lib}" "{build.path}/{archive_file}" -Wl,--end-group'
p109
ssg101
(dp110
S'pattern'
p111
S'"{compiler.path}{compiler.c.cmd}" {compiler.c.flags} -mcpu={build.mcu} -DF_CPU={build.f_cpu} -DARDUINO={runtime.ide.version} -DARDUINO_{build.board} -DARDUINO_ARCH_{build.arch} {build.extra_flags} {compiler.libsam.c.flags} {includes} "{source_file}" -o "{object_file}"'
p112
sssS'ar'
p113
(dp114
S'pattern'
p115
S'"{compiler.path}{compiler.ar.cmd}" {compiler.ar.flags} "{build.path}/{archive_file}" "{object_file}"'
p116
ssS'objcopy'
p117
(dp118
S'hex'
p119
(dp120
S'pattern'
p121
S'"{compiler.path}{compiler.elf2hex.cmd}" {compiler.elf2hex.flags} "{build.path}/{build.project_name}.elf" "{build.path}/{build.project_name}.bin"'
p122
ssS'eep'
p123
(dp124
S'pattern'
p125
g11
sssS'size'
p126
(dp127
S'regex'
p128
S'\\.text\\s+([0-9]+).*'
p129
sS'pattern'
p130
S'"{compiler.path}{compiler.size.cmd}" -A "{build.path}/{build.project_name}.elf"'
p131
ssaa(lp132
S'tools'
p133
a(dp134
S'bossac'
p135
(dp136
S'path'
p137
S'{runtime.ide.path}/hardware/tools'
p138
sS'cmd'
p139
S'bossac'
p140
sg140
(dp141
S'windows'
p142
S'bossac.exe'
p143
sS'name'
p144
g140
ssS'upload'
p145
(dp146
S'pattern'
p147
S'"{path}/{cmd}" {upload.verbose} --port={serial.port.file} -U {upload.native_usb} -e -w -v -b "{build.path}/{build.project_name}.bin" -R'
p148
sS'params'
p149
(dp150
S'verbose'
p151
S'-i -d'
p152
sS'quiet'
p153
g11
ssssaatp154
Rp155
aa(lp156
S'avr'
p157
ag21
((lp158
(lp159
S'name'
p160
aS'Arduino AVR Boards'
p161
aa(lp162
S'version'
p163
aS'1.5.6'
p164
aa(lp165
S'compiler'
p166
a(dp167
g32
(dp168
S'elf'
p169
(dp170
S'cmd'
p171
S'avr-gcc'
p172
sS'flags'
p173
S'-Os -Wl,--gc-sections'
p174
ssS'cmd'
p175
S'avr-gcc'
p176
sS'flags'
p177
S'-c -g -Os -w -ffunction-sections -fdata-sections -MMD'
p178
ssS'elf2hex'
p179
(dp180
S'cmd'
p181
S'avr-objcopy'
p182
sS'flags'
p183
S'-O ihex -R .eeprom'
p184
ssg52
(dp185
S'flags'
p186
S'-c -g -x assembler-with-cpp'
p187
ssS'ar'
p188
(dp189
S'cmd'
p190
S'avr-ar'
p191
sS'flags'
p192
S'rcs'
p193
ssS'ldflags'
p194
g11
sS'cpp'
p195
(dp196
S'cmd'
p197
S'avr-g++'
p198
sS'flags'
p199
S'-c -g -Os -w -fno-exceptions -ffunction-sections -fdata-sections -MMD'
p200
ssS'objcopy'
p201
(dp202
S'cmd'
p203
S'avr-objcopy'
p204
sS'eep'
p205
(dp206
S'flags'
p207
S'-O ihex -j .eeprom --set-section-flags=.eeprom=alloc,load --no-change-warnings --change-section-lma .eeprom=0'
p208
sssS'size'
p209
(dp210
S'cmd'
p211
S'avr-size'
p212
ssaa(lp213
S'build'
p214
a(dp215
S'usb_manufacturer'
p216
g11
sS'usb_flags'
p217
S"-DUSB_VID={build.vid} -DUSB_PID={build.pid} '-DUSB_MANUFACTURER={build.usb_manufacturer}' '-DUSB_PRODUCT={build.usb_product}'"
p218
sS'extra_flags'
p219
g11
saa(lp220
S'recipe'
p221
a(dp222
g32
(dp223
S'combine'
p224
(dp225
S'pattern'
p226
S'"{compiler.path}{compiler.c.elf.cmd}" {compiler.c.elf.flags} -mmcu={build.mcu} -o "{build.path}/{build.project_name}.elf" {object_files} "{build.path}/{archive_file}" "-L{build.path}" -lm'
p227
ssg101
(dp228
S'pattern'
p229
S'"{compiler.path}{compiler.c.cmd}" {compiler.c.flags} -mmcu={build.mcu} -DF_CPU={build.f_cpu} -DARDUINO={runtime.ide.version} -DARDUINO_{build.board} -DARDUINO_ARCH_{build.arch} {build.extra_flags} {includes} "{source_file}" -o "{object_file}"'
p230
sssg52
(dp231
g101
(dp232
S'pattern'
p233
S'"{compiler.path}{compiler.c.cmd}" {compiler.S.flags} -mmcu={build.mcu} -DF_CPU={build.f_cpu} -DARDUINO={runtime.ide.version} -DARDUINO_{build.board} -DARDUINO_ARCH_{build.arch} {build.extra_flags} {includes} "{source_file}" -o "{object_file}"'
p234
sssS'ar'
p235
(dp236
S'pattern'
p237
S'"{compiler.path}{compiler.ar.cmd}" {compiler.ar.flags} "{build.path}/{archive_file}" "{object_file}"'
p238
ssS'cpp'
p239
(dp240
g101
(dp241
S'pattern'
p242
S'"{compiler.path}{compiler.cpp.cmd}" {compiler.cpp.flags} -mmcu={build.mcu} -DF_CPU={build.f_cpu} -DARDUINO={runtime.ide.version} -DARDUINO_{build.board} -DARDUINO_ARCH_{build.arch} {build.extra_flags} {includes} "{source_file}" -o "{object_file}"'
p243
sssS'objcopy'
p244
(dp245
S'hex'
p246
(dp247
S'pattern'
p248
S'"{compiler.path}{compiler.elf2hex.cmd}" {compiler.elf2hex.flags} "{build.path}/{build.project_name}.elf" "{build.path}/{build.project_name}.hex"'
p249
ssS'eep'
p250
(dp251
S'pattern'
p252
S'"{compiler.path}{compiler.objcopy.cmd}" {compiler.objcopy.eep.flags} "{build.path}/{build.project_name}.elf" "{build.path}/{build.project_name}.eep"'
p253
sssS'size'
p254
(dp255
S'regex'
p256
S'^(?:\\.text|\\.data|\\.bootloader)\\s+([0-9]+).*'
p257
sS'pattern'
p258
S'"{compiler.path}{compiler.size.cmd}" -A "{build.path}/{build.project_name}.elf"'
p259
sg257
(dp260
g144
g257
sS'eeprom'
p261
S'^(?:\\.eeprom)\\s+([0-9]+).*'
p262
sssaa(lp263
S'tools'
p264
a(dp265
S'avrdude'
p266
(dp267
S'program'
p268
(dp269
S'pattern'
p270
S'"{cmd.path}" "-C{config.path}" {program.verbose} -p{build.mcu} -c{protocol} {program.extra_params} "-Uflash:w:{build.path}/{build.project_name}.hex:i"'
p271
sS'params'
p272
(dp273
S'verbose'
p274
S'-v -v -v -v'
p275
sS'quiet'
p276
S'-q -q'
p277
sssS'cmd'
p278
(dp279
S'path'
p280
S'{runtime.ide.path}/hardware/tools/avr/bin/avrdude'
p281
sg281
(dp282
g144
g281
sS'linux'
p283
S'{runtime.ide.path}/hardware/tools/avrdude'
p284
sssS'upload'
p285
(dp286
S'pattern'
p287
S'"{cmd.path}" "-C{config.path}" {upload.verbose} -p{build.mcu} -c{upload.protocol} -P{serial.port} -b{upload.speed} -D "-Uflash:w:{build.path}/{build.project_name}.hex:i"'
p288
sS'params'
p289
(dp290
S'verbose'
p291
S'-v -v -v -v'
p292
sS'quiet'
p293
S'-q -q'
p294
sssS'erase'
p295
(dp296
S'pattern'
p297
S'"{cmd.path}" "-C{config.path}" {erase.verbose} -p{build.mcu} -c{protocol} {program.extra_params} -e -Ulock:w:{bootloader.unlock_bits}:m -Uefuse:w:{bootloader.extended_fuses}:m -Uhfuse:w:{bootloader.high_fuses}:m -Ulfuse:w:{bootloader.low_fuses}:m'
p298
sS'params'
p299
(dp300
S'verbose'
p301
S'-v -v -v -v'
p302
sS'quiet'
p303
S'-q -q'
p304
sssS'bootloader'
p305
(dp306
S'pattern'
p307
S'"{cmd.path}" "-C{config.path}" {bootloader.verbose} -p{build.mcu} -c{protocol} {program.extra_params} "-Uflash:w:{runtime.platform.path}/bootloaders/{bootloader.file}:i" -Ulock:w:{bootloader.lock_bits}:m'
p308
sS'params'
p309
(dp310
S'verbose'
p311
S'-v -v -v -v'
p312
sS'quiet'
p313
S'-q -q'
p314
sssS'config'
p315
(dp316
S'path'
p317
S'{runtime.ide.path}/hardware/tools/avr/etc/avrdude.conf'
p318
sg318
(dp319
g144
g318
sS'linux'
p320
S'{runtime.ide.path}/hardware/tools/avrdude.conf'
p321
ssssaatp322
Rp323
aatp324
Rp325
(dp326
S'default'
p327
g157
sbtp328
a(S'ar'
p329
S'/usr/share/arduino/hardware/tools/g++_arm_none_eabi/bin/arm-none-eabi-ar'
p330
tp331
a(S'names'
p332
(dp333
S'cpp'
p334
S'%s.cpp'
p335
sS'obj'
p336
S'%s.o'
p337
sS'deps'
p338
S'%s.d'
p339
sS'lib'
p340
S'lib%s.a'
p341
stp342
a(S'arduino_lib_version'
p343
ccopy_reg
_reconstructor
p344
(cino.environment
Version
p345
c__builtin__
tuple
p346
(I1
I5
I6
tp347
tp348
Rp349
tp350
a(S'objcopy'
p351
S'/usr/share/arduino/hardware/tools/g++_arm_none_eabi/bin/arm-none-eabi-objcopy'
p352
tp353
a(S'board_models'
p354
cino.environment
BoardModels
p355
((lp356
(lp357
S'arduino_due_x_dbg'
p358
a(dp359
S'name'
p360
S'Arduino Due (Programming Port)'
p361
sS'vid'
p362
(dp363
S'0'
p364
S'0x2341'
p365
ssS'pid'
p366
(dp367
g364
S'0x003d'
p368
ssS'upload'
p369
(dp370
S'protocol'
p371
S'sam-ba'
p372
sS'wait_for_upload_port'
p373
S'false'
p374
sS'tool'
p375
S'bossac'
p376
sS'native_usb'
p377
S'false'
p378
sS'maximum_size'
p379
S'524288'
p380
sS'use_1200bps_touch'
p381
S'true'
p382
ssS'build'
p383
(dp384
S'core'
p385
S'arduino'
p386
sS'f_cpu'
p387
S'84000000L'
p388
sS'vid'
p389
S'0x2341'
p390
sS'usb_product'
p391
S'"Arduino Due"'
p392
sS'pid'
p393
S'0x003e'
p394
sS'variant'
p395
S'arduino_due_x'
p396
sS'extra_flags'
p397
S'-D__SAM3X8E__ -mthumb {build.usb_flags}'
p398
sS'variant_system_lib'
p399
S'libsam_sam3x8e_gcc_rel.a'
p400
sS'board'
p401
S'SAM_DUE'
p402
sS'ldscript'
p403
S'linker_scripts/gcc/flash.ld'
p404
sS'mcu'
p405
S'cortex-m3'
p406
ssS'arch'
p407
g20
saa(lp408
S'arduino_due_x'
p409
a(dp410
S'name'
p411
S'Arduino Due (Native USB Port)'
p412
sS'vid'
p413
(dp414
g364
S'0x2341'
p415
ssS'pid'
p416
(dp417
g364
S'0x003e'
p418
ssS'upload'
p419
(dp420
S'protocol'
p421
S'sam-ba'
p422
sS'wait_for_upload_port'
p423
S'true'
p424
sS'tool'
p425
S'bossac'
p426
sS'native_usb'
p427
S'true'
p428
sS'maximum_size'
p429
S'524288'
p430
sS'use_1200bps_touch'
p431
S'true'
p432
ssS'build'
p433
(dp434
S'core'
p435
S'arduino'
p436
sS'f_cpu'
p437
S'84000000L'
p438
sS'vid'
p439
S'0x2341'
p440
sS'usb_product'
p441
S'"Arduino Due"'
p442
sS'pid'
p443
S'0x003e'
p444
sS'variant'
p445
S'arduino_due_x'
p446
sS'extra_flags'
p447
S'-D__SAM3X8E__ -mthumb {build.usb_flags}'
p448
sS'variant_system_lib'
p449
S'libsam_sam3x8e_gcc_rel.a'
p450
sS'board'
p451
S'SAM_DUE'
p452
sS'ldscript'
p453
S'linker_scripts/gcc/flash.ld'
p454
sS'mcu'
p455
S'cortex-m3'
p456
ssg407
g20
saa(lp457
S'yun'
p458
a(dp459
S'name'
p460
S'Arduino Y\xc3\xban'
p461
sS'vid'
p462
(dp463
S'1'
p464
S'0x2341'
p465
sg364
S'0x2341'
p466
ssS'pid'
p467
(dp468
g464
S'0x8041'
p469
sg364
S'0x0041'
p470
ssS'upload'
p471
(dp472
S'protocol'
p473
S'avr109'
p474
sS'disable_flushing'
p475
S'true'
p476
sS'tool'
p477
S'avrdude'
p478
sS'maximum_data_size'
p479
S'2560'
p480
sS'via_ssh'
p481
S'true'
p482
sS'maximum_size'
p483
S'28672'
p484
sS'use_1200bps_touch'
p485
S'true'
p486
sS'speed'
p487
S'57600'
p488
sS'wait_for_upload_port'
p489
S'true'
p490
ssS'build'
p491
(dp492
S'core'
p493
S'arduino'
p494
sS'f_cpu'
p495
S'16000000L'
p496
sS'vid'
p497
S'0x2341'
p498
sS'usb_product'
p499
S'"Arduino Yun"'
p500
sS'pid'
p501
S'0x8041'
p502
sS'extra_flags'
p503
S'{build.usb_flags}'
p504
sS'board'
p505
S'AVR_YUN'
p506
sS'mcu'
p507
S'atmega32u4'
p508
sS'variant'
p509
S'yun'
p510
ssS'bootloader'
p511
(dp512
S'extended_fuses'
p513
S'0xfb'
p514
sS'high_fuses'
p515
S'0xd8'
p516
sS'low_fuses'
p517
S'0xff'
p518
sS'lock_bits'
p519
S'0x2F'
p520
sS'tool'
p521
S'avrdude'
p522
sS'file'
p523
S'caterina/Caterina-Yun.hex'
p524
sS'unlock_bits'
p525
S'0x3F'
p526
ssg407
g157
saa(lp527
S'uno'
p528
a(dp529
S'name'
p530
S'Arduino Uno'
p531
sS'vid'
p532
(dp533
g464
S'0x2341'
p534
sg364
S'0x2341'
p535
ssS'pid'
p536
(dp537
g464
S'0x0001'
p538
sg364
S'0x0043'
p539
ssS'upload'
p540
(dp541
S'speed'
p542
S'115200'
p543
sS'tool'
p544
S'avrdude'
p545
sS'protocol'
p546
S'arduino'
p547
sS'maximum_size'
p548
S'32256'
p549
sS'maximum_data_size'
p550
S'2048'
p551
ssS'build'
p552
(dp553
S'core'
p554
S'arduino'
p555
sS'mcu'
p556
S'atmega328p'
p557
sS'f_cpu'
p558
S'16000000L'
p559
sS'board'
p560
S'AVR_UNO'
p561
sS'variant'
p562
S'standard'
p563
ssS'bootloader'
p564
(dp565
S'extended_fuses'
p566
S'0x05'
p567
sS'high_fuses'
p568
S'0xDE'
p569
sS'low_fuses'
p570
S'0xFF'
p571
sS'lock_bits'
p572
S'0x0F'
p573
sS'tool'
p574
S'avrdude'
p575
sS'file'
p576
S'optiboot/optiboot_atmega328.hex'
p577
sS'unlock_bits'
p578
S'0x3F'
p579
ssg407
g157
saa(lp580
S'diecimila'
p581
a(dp582
S'name'
p583
S'Arduino Duemilanove or Diecimila'
p584
sS'menu'
p585
(dp586
S'cpu'
p587
(dp588
S'ATmega168'
p589
(dp590
g144
g589
sS'build'
p591
(dp592
S'mcu'
p593
S'atmega168'
p594
sssS'atmega168'
p595
g589
sS'ATmega328'
p596
(dp597
g144
g596
sS'build'
p598
(dp599
S'mcu'
p600
S'atmega328p'
p601
sssS'atmega328'
p602
g596
sssS'upload'
p603
(dp604
S'tool'
p605
S'avrdude'
p606
sS'protocol'
p607
S'arduino'
p608
ssS'build'
p609
(dp610
S'core'
p611
S'arduino'
p612
sS'f_cpu'
p613
S'16000000L'
p614
sS'board'
p615
S'AVR_DUEMILANOVE'
p616
sS'variant'
p617
S'standard'
p618
ssS'bootloader'
p619
(dp620
S'low_fuses'
p621
S'0xFF'
p622
sS'lock_bits'
p623
S'0x0F'
p624
sS'tool'
p625
S'avrdude'
p626
sS'unlock_bits'
p627
S'0x3F'
p628
ssg407
g157
saa(lp629
S'nano'
p630
a(dp631
S'name'
p632
S'Arduino Nano'
p633
sS'menu'
p634
(dp635
S'cpu'
p636
(dp637
S'ATmega168'
p638
(dp639
g144
g638
sS'build'
p640
(dp641
S'mcu'
p642
S'atmega168'
p643
sssS'atmega168'
p644
g638
sS'ATmega328'
p645
(dp646
g144
g645
sS'build'
p647
(dp648
S'mcu'
p649
S'atmega328p'
p650
sssS'atmega328'
p651
g645
sssS'upload'
p652
(dp653
S'tool'
p654
S'avrdude'
p655
sS'protocol'
p656
S'arduino'
p657
ssS'build'
p658
(dp659
S'core'
p660
S'arduino'
p661
sS'f_cpu'
p662
S'16000000L'
p663
sS'board'
p664
S'AVR_NANO'
p665
sS'variant'
p666
S'eightanaloginputs'
p667
ssS'bootloader'
p668
(dp669
S'lock_bits'
p670
S'0x0F'
p671
sS'tool'
p672
S'avrdude'
p673
sS'unlock_bits'
p674
S'0x3F'
p675
ssg407
g157
saa(lp676
S'mega'
p677
a(dp678
S'name'
p679
S'Arduino Mega or Mega 2560'
p680
sS'vid'
p681
(dp682
g464
S'0x2341'
p683
sg364
S'0x2341'
p684
ssS'menu'
p685
(dp686
S'cpu'
p687
(dp688
S'ATmega2560 (Mega 2560)'
p689
(dp690
g144
g689
sS'build'
p691
(dp692
S'board'
p693
S'AVR_MEGA2560'
p694
sssS'atmega1280'
p695
S'ATmega1280'
p696
sS'atmega2560'
p697
g689
sg696
(dp698
g144
g696
sS'build'
p699
(dp700
S'board'
p701
S'AVR_MEGA'
p702
sssssS'pid'
p703
(dp704
g464
S'0x0042'
p705
sg364
S'0x0010'
p706
ssS'upload'
p707
(dp708
S'tool'
p709
S'avrdude'
p710
sS'maximum_data_size'
p711
S'8192'
p712
ssS'build'
p713
(dp714
S'core'
p715
S'arduino'
p716
sS'f_cpu'
p717
S'16000000L'
p718
sS'board'
p719
S'AVR_MEGA2560'
p720
sS'variant'
p721
S'mega'
p722
ssS'bootloader'
p723
(dp724
S'low_fuses'
p725
S'0xFF'
p726
sS'lock_bits'
p727
S'0x0F'
p728
sS'tool'
p729
S'avrdude'
p730
sS'unlock_bits'
p731
S'0x3F'
p732
ssg407
g157
saa(lp733
S'megaADK'
p734
a(dp735
S'name'
p736
S'Arduino Mega ADK'
p737
sS'vid'
p738
(dp739
g464
S'0x2341'
p740
sg364
S'0x2341'
p741
ssS'pid'
p742
(dp743
g464
S'0x0044'
p744
sg364
S'0x003f'
p745
ssS'upload'
p746
(dp747
S'speed'
p748
S'115200'
p749
sS'tool'
p750
S'avrdude'
p751
sS'protocol'
p752
S'wiring'
p753
sS'maximum_size'
p754
S'258048'
p755
sS'maximum_data_size'
p756
S'8192'
p757
ssS'build'
p758
(dp759
S'core'
p760
S'arduino'
p761
sS'mcu'
p762
S'atmega2560'
p763
sS'f_cpu'
p764
S'16000000L'
p765
sS'board'
p766
S'AVR_ADK'
p767
sS'variant'
p768
S'mega'
p769
ssS'bootloader'
p770
(dp771
S'extended_fuses'
p772
S'0xFD'
p773
sS'high_fuses'
p774
S'0xD8'
p775
sS'low_fuses'
p776
S'0xFF'
p777
sS'lock_bits'
p778
S'0x0F'
p779
sS'tool'
p780
S'avrdude'
p781
sS'file'
p782
S'stk500v2/stk500boot_v2_mega2560.hex'
p783
sS'unlock_bits'
p784
S'0x3F'
p785
ssg407
g157
saa(lp786
S'leonardo'
p787
a(dp788
S'name'
p789
S'Arduino Leonardo'
p790
sS'vid'
p791
(dp792
g464
S'0x2341'
p793
sg364
S'0x2341'
p794
ssS'pid'
p795
(dp796
g464
S'0x8036'
p797
sg364
S'0x0036'
p798
ssS'upload'
p799
(dp800
S'protocol'
p801
S'avr109'
p802
sS'disable_flushing'
p803
S'true'
p804
sS'tool'
p805
S'avrdude'
p806
sS'maximum_data_size'
p807
S'2560'
p808
sS'maximum_size'
p809
S'28672'
p810
sS'use_1200bps_touch'
p811
S'true'
p812
sS'speed'
p813
S'57600'
p814
sS'wait_for_upload_port'
p815
S'true'
p816
ssS'build'
p817
(dp818
S'core'
p819
S'arduino'
p820
sS'f_cpu'
p821
S'16000000L'
p822
sS'vid'
p823
S'0x2341'
p824
sS'usb_product'
p825
S'"Arduino Leonardo"'
p826
sS'pid'
p827
S'0x8036'
p828
sS'extra_flags'
p829
S'{build.usb_flags}'
p830
sS'board'
p831
S'AVR_LEONARDO'
p832
sS'mcu'
p833
S'atmega32u4'
p834
sS'variant'
p835
S'leonardo'
p836
ssS'bootloader'
p837
(dp838
S'extended_fuses'
p839
S'0xcb'
p840
sS'high_fuses'
p841
S'0xd8'
p842
sS'low_fuses'
p843
S'0xff'
p844
sS'lock_bits'
p845
S'0x2F'
p846
sS'tool'
p847
S'avrdude'
p848
sS'file'
p849
S'caterina/Caterina-Leonardo.hex'
p850
sS'unlock_bits'
p851
S'0x3F'
p852
ssg407
g157
saa(lp853
S'micro'
p854
a(dp855
S'build'
p856
(dp857
S'core'
p858
S'arduino'
p859
sS'f_cpu'
p860
S'16000000L'
p861
sS'vid'
p862
S'0x2341'
p863
sS'usb_product'
p864
S'"Arduino Micro"'
p865
sS'pid'
p866
S'0x8037'
p867
sS'extra_flags'
p868
S'{build.usb_flags}'
p869
sS'board'
p870
S'AVR_MICRO'
p871
sS'mcu'
p872
S'atmega32u4'
p873
sS'variant'
p874
S'micro'
p875
ssS'bootloader'
p876
(dp877
S'extended_fuses'
p878
S'0xcb'
p879
sS'high_fuses'
p880
S'0xd8'
p881
sS'low_fuses'
p882
S'0xff'
p883
sS'lock_bits'
p884
S'0x2F'
p885
sS'tool'
p886
S'avrdude'
p887
sS'file'
p888
S'caterina/Caterina-Micro.hex'
p889
sS'unlock_bits'
p890
S'0x3F'
p891
ssg407
g157
sS'name'
p892
S'Arduino Micro'
p893
sS'upload'
p894
(dp895
S'protocol'
p896
S'avr109'
p897
sS'disable_flushing'
p898
S'true'
p899
sS'tool'
p900
S'avrdude'
p901
sS'maximum_data_size'
p902
S'2560'
p903
sS'maximum_size'
p904
S'28672'
p905
sS'use_1200bps_touch'
p906
S'true'
p907
sS'speed'
p908
S'57600'
p909
sS'wait_for_upload_port'
p910
S'true'
p911
ssaa(lp912
S'esplora'
p913
a(dp914
S'name'
p915
S'Arduino Esplora'
p916
sS'vid'
p917
(dp918
g464
S'0x2341'
p919
sg364
S'0x2341'
p920
ssS'pid'
p921
(dp922
g464
S'0x803c'
p923
sg364
S'0x003c'
p924
ssS'upload'
p925
(dp926
S'protocol'
p927
S'avr109'
p928
sS'disable_flushing'
p929
S'true'
p930
sS'tool'
p931
S'avrdude'
p932
sS'maximum_data_size'
p933
S'2560'
p934
sS'maximum_size'
p935
S'28672'
p936
sS'use_1200bps_touch'
p937
S'true'
p938
sS'speed'
p939
S'57600'
p940
sS'wait_for_upload_port'
p941
S'true'
p942
ssS'build'
p943
(dp944
S'core'
p945
S'arduino'
p946
sS'f_cpu'
p947
S'16000000L'
p948
sS'vid'
p949
S'0x2341'
p950
sS'usb_product'
p951
S'"Arduino Esplora"'
p952
sS'pid'
p953
S'0x803c'
p954
sS'extra_flags'
p955
S'{build.usb_flags}'
p956
sS'board'
p957
S'AVR_ESPLORA'
p958
sS'mcu'
p959
S'atmega32u4'
p960
sS'variant'
p961
S'leonardo'
p962
ssS'bootloader'
p963
(dp964
S'extended_fuses'
p965
S'0xcb'
p966
sS'high_fuses'
p967
S'0xd8'
p968
sS'low_fuses'
p969
S'0xff'
p970
sS'lock_bits'
p971
S'0x2F'
p972
sS'tool'
p973
S'avrdude'
p974
sS'file'
p975
S'caterina/Caterina-Esplora.hex'
p976
sS'unlock_bits'
p977
S'0x3F'
p978
ssg407
g157
saa(lp979
S'mini'
p980
a(dp981
S'name'
p982
S'Arduino Mini'
p983
sS'menu'
p984
(dp985
S'cpu'
p986
(dp987
S'ATmega168'
p988
(dp989
g144
g988
sS'build'
p990
(dp991
S'mcu'
p992
S'atmega168'
p993
sssS'atmega168'
p994
g988
sS'ATmega328'
p995
(dp996
g144
g995
sS'build'
p997
(dp998
S'mcu'
p999
S'atmega328p'
p1000
sssS'atmega328'
p1001
g995
sssS'upload'
p1002
(dp1003
S'tool'
p1004
S'avrdude'
p1005
sS'protocol'
p1006
S'arduino'
p1007
ssS'build'
p1008
(dp1009
S'core'
p1010
S'arduino'
p1011
sS'f_cpu'
p1012
S'16000000L'
p1013
sS'board'
p1014
S'AVR_MINI'
p1015
sS'variant'
p1016
S'eightanaloginputs'
p1017
ssS'bootloader'
p1018
(dp1019
S'low_fuses'
p1020
S'0xff'
p1021
sS'lock_bits'
p1022
S'0x0F'
p1023
sS'tool'
p1024
S'avrdude'
p1025
sS'unlock_bits'
p1026
S'0x3F'
p1027
ssg407
g157
saa(lp1028
S'ethernet'
p1029
a(dp1030
S'build'
p1031
(dp1032
S'f_cpu'
p1033
S'16000000L'
p1034
sS'mcu'
p1035
S'atmega328p'
p1036
sS'variant'
p1037
S'ethernet'
p1038
sS'board'
p1039
S'AVR_ETHERNET'
p1040
sS'core'
p1041
S'arduino'
p1042
ssS'bootloader'
p1043
(dp1044
S'extended_fuses'
p1045
S'0x05'
p1046
sS'high_fuses'
p1047
S'0xde'
p1048
sS'low_fuses'
p1049
S'0xff'
p1050
sS'lock_bits'
p1051
S'0x0F'
p1052
sS'tool'
p1053
S'avrdude'
p1054
sS'file'
p1055
S'optiboot/optiboot_atmega328.hex'
p1056
sS'unlock_bits'
p1057
S'0x3F'
p1058
ssg407
g157
sS'name'
p1059
S'Arduino Ethernet'
p1060
sS'upload'
p1061
(dp1062
S'speed'
p1063
S'115200'
p1064
sS'tool'
p1065
S'avrdude'
p1066
sS'protocol'
p1067
S'arduino'
p1068
sS'maximum_size'
p1069
S'32256'
p1070
sS'maximum_data_size'
p1071
S'2048'
p1072
ssaa(lp1073
S'fio'
p1074
a(dp1075
S'build'
p1076
(dp1077
S'core'
p1078
S'arduino'
p1079
sS'mcu'
p1080
S'atmega328p'
p1081
sS'f_cpu'
p1082
S'8000000L'
p1083
sS'board'
p1084
S'AVR_FIO'
p1085
sS'variant'
p1086
S'eightanaloginputs'
p1087
ssS'bootloader'
p1088
(dp1089
S'extended_fuses'
p1090
S'0x05'
p1091
sS'high_fuses'
p1092
S'0xDA'
p1093
sS'low_fuses'
p1094
S'0xFF'
p1095
sS'lock_bits'
p1096
S'0x0F'
p1097
sS'tool'
p1098
S'avrdude'
p1099
sS'file'
p1100
S'atmega/ATmegaBOOT_168_atmega328_pro_8MHz.hex'
p1101
sS'unlock_bits'
p1102
S'0x3F'
p1103
ssg407
g157
sS'name'
p1104
S'Arduino Fio'
p1105
sS'upload'
p1106
(dp1107
S'speed'
p1108
S'57600'
p1109
sS'tool'
p1110
S'avrdude'
p1111
sS'protocol'
p1112
S'arduino'
p1113
sS'maximum_size'
p1114
S'30720'
p1115
sS'maximum_data_size'
p1116
S'2048'
p1117
ssaa(lp1118
S'bt'
p1119
a(dp1120
S'name'
p1121
S'Arduino BT'
p1122
sS'menu'
p1123
(dp1124
S'cpu'
p1125
(dp1126
S'ATmega168'
p1127
(dp1128
g144
g1127
sS'build'
p1129
(dp1130
S'mcu'
p1131
S'atmega168'
p1132
sssS'atmega168'
p1133
g1127
sS'ATmega328'
p1134
(dp1135
g144
g1134
sS'build'
p1136
(dp1137
S'mcu'
p1138
S'atmega328p'
p1139
sssS'atmega328'
p1140
g1134
sssS'upload'
p1141
(dp1142
S'speed'
p1143
S'19200'
p1144
sS'tool'
p1145
S'avrdude'
p1146
sS'protocol'
p1147
S'arduino'
p1148
sS'disable_flushing'
p1149
S'true'
p1150
ssS'build'
p1151
(dp1152
S'core'
p1153
S'arduino'
p1154
sS'f_cpu'
p1155
S'16000000L'
p1156
sS'board'
p1157
S'AVR_BT'
p1158
sS'variant'
p1159
S'eightanaloginputs'
p1160
ssS'bootloader'
p1161
(dp1162
S'low_fuses'
p1163
S'0xff'
p1164
sS'lock_bits'
p1165
S'0x0F'
p1166
sS'tool'
p1167
S'avrdude'
p1168
sS'unlock_bits'
p1169
S'0x3F'
p1170
ssg407
g157
saa(lp1171
S'LilyPadUSB'
p1172
a(dp1173
S'build'
p1174
(dp1175
S'core'
p1176
S'arduino'
p1177
sS'f_cpu'
p1178
S'8000000L'
p1179
sS'vid'
p1180
S'0x1B4F'
p1181
sS'usb_product'
p1182
S'"LilyPad USB"'
p1183
sS'pid'
p1184
S'0x9208'
p1185
sS'extra_flags'
p1186
S'{build.usb_flags}'
p1187
sS'board'
p1188
S'AVR_LILYPAD_USB'
p1189
sS'mcu'
p1190
S'atmega32u4'
p1191
sS'variant'
p1192
S'leonardo'
p1193
ssS'bootloader'
p1194
(dp1195
S'extended_fuses'
p1196
S'0xce'
p1197
sS'high_fuses'
p1198
S'0xd8'
p1199
sS'low_fuses'
p1200
S'0xff'
p1201
sS'lock_bits'
p1202
S'0x2F'
p1203
sS'tool'
p1204
S'avrdude'
p1205
sS'file'
p1206
S'caterina-LilyPadUSB/Caterina-LilyPadUSB.hex'
p1207
sS'unlock_bits'
p1208
S'0x3F'
p1209
ssg407
g157
sS'name'
p1210
S'LilyPad Arduino USB'
p1211
sS'upload'
p1212
(dp1213
S'protocol'
p1214
S'avr109'
p1215
sS'disable_flushing'
p1216
S'true'
p1217
sS'tool'
p1218
S'avrdude'
p1219
sS'maximum_data_size'
p1220
S'2560'
p1221
sS'maximum_size'
p1222
S'28672'
p1223
sS'use_1200bps_touch'
p1224
S'true'
p1225
sS'speed'
p1226
S'57600'
p1227
sS'wait_for_upload_port'
p1228
S'true'
p1229
ssaa(lp1230
S'lilypad'
p1231
a(dp1232
S'name'
p1233
S'LilyPad Arduino'
p1234
sS'menu'
p1235
(dp1236
S'cpu'
p1237
(dp1238
S'ATmega168'
p1239
(dp1240
g144
g1239
sS'build'
p1241
(dp1242
S'mcu'
p1243
S'atmega168'
p1244
sssS'atmega168'
p1245
g1239
sS'ATmega328'
p1246
(dp1247
g144
g1246
sS'build'
p1248
(dp1249
S'mcu'
p1250
S'atmega328p'
p1251
sssS'atmega328'
p1252
g1246
sssS'upload'
p1253
(dp1254
S'tool'
p1255
S'avrdude'
p1256
sS'protocol'
p1257
S'arduino'
p1258
ssS'build'
p1259
(dp1260
S'core'
p1261
S'arduino'
p1262
sS'f_cpu'
p1263
S'8000000L'
p1264
sS'board'
p1265
S'AVR_LILYPAD'
p1266
sS'variant'
p1267
S'standard'
p1268
ssS'bootloader'
p1269
(dp1270
S'lock_bits'
p1271
S'0x0F'
p1272
sS'tool'
p1273
S'avrdude'
p1274
sS'unlock_bits'
p1275
S'0x3F'
p1276
ssg407
g157
saa(lp1277
S'pro'
p1278
a(dp1279
S'name'
p1280
S'Arduino Pro or Pro Mini'
p1281
sS'menu'
p1282
(dp1283
S'cpu'
p1284
(dp1285
S'ATmega328 (5V, 16 MHz)'
p1286
(dp1287
g144
g1286
sS'build'
p1288
(dp1289
S'f_cpu'
p1290
S'16000000L'
p1291
sssS'8MHzatmega328'
p1292
S'ATmega328 (3.3V, 8 MHz)'
p1293
sg1293
(dp1294
g144
g1293
sS'build'
p1295
(dp1296
S'f_cpu'
p1297
S'8000000L'
p1298
sssS'ATmega168 (5V, 16 MHz)'
p1299
(dp1300
g144
g1299
sS'build'
p1301
(dp1302
S'f_cpu'
p1303
S'16000000L'
p1304
sssS'16MHzatmega328'
p1305
g1286
sS'ATmega168 (3.3V, 8 MHz)'
p1306
(dp1307
g144
g1306
sS'build'
p1308
(dp1309
S'f_cpu'
p1310
S'8000000L'
p1311
sssS'16MHzatmega168'
p1312
g1299
sS'8MHzatmega168'
p1313
g1306
sssS'upload'
p1314
(dp1315
S'tool'
p1316
S'avrdude'
p1317
sS'protocol'
p1318
S'arduino'
p1319
ssS'build'
p1320
(dp1321
S'core'
p1322
S'arduino'
p1323
sS'variant'
p1324
S'standard'
p1325
sS'board'
p1326
S'AVR_PRO'
p1327
ssS'bootloader'
p1328
(dp1329
S'lock_bits'
p1330
S'0x0F'
p1331
sS'tool'
p1332
S'avrdude'
p1333
sS'unlock_bits'
p1334
S'0x3F'
p1335
ssg407
g157
saa(lp1336
S'atmegang'
p1337
a(dp1338
S'name'
p1339
S'Arduino NG or older'
p1340
sS'menu'
p1341
(dp1342
S'cpu'
p1343
(dp1344
S'atmega168'
p1345
S'ATmega168'
p1346
sS'ATmega8'
p1347
(dp1348
g144
g1347
sS'build'
p1349
(dp1350
S'mcu'
p1351
S'atmega8'
p1352
sssS'atmega8'
p1353
g1347
sg1346
(dp1354
g144
g1346
sS'build'
p1355
(dp1356
S'mcu'
p1357
S'atmega168'
p1358
sssssS'upload'
p1359
(dp1360
S'speed'
p1361
S'19200'
p1362
sS'tool'
p1363
S'avrdude'
p1364
sS'protocol'
p1365
S'arduino'
p1366
ssS'build'
p1367
(dp1368
S'core'
p1369
S'arduino'
p1370
sS'mcu'
p1371
S'atmegang'
p1372
sS'f_cpu'
p1373
S'16000000L'
p1374
sS'board'
p1375
S'AVR_NG'
p1376
sS'variant'
p1377
S'standard'
p1378
ssS'bootloader'
p1379
(dp1380
S'lock_bits'
p1381
S'0x0F'
p1382
sS'tool'
p1383
S'avrdude'
p1384
sS'unlock_bits'
p1385
S'0x3F'
p1386
ssg407
g157
saa(lp1387
S'robotControl'
p1388
a(dp1389
S'build'
p1390
(dp1391
S'core'
p1392
S'arduino'
p1393
sS'f_cpu'
p1394
S'16000000L'
p1395
sS'vid'
p1396
S'0x2341'
p1397
sS'usb_product'
p1398
S'"Robot Control"'
p1399
sS'pid'
p1400
S'0x8038'
p1401
sS'extra_flags'
p1402
S'{build.usb_flags}'
p1403
sS'board'
p1404
S'AVR_ROBOT_CONTROL'
p1405
sS'mcu'
p1406
S'atmega32u4'
p1407
sS'variant'
p1408
S'robot_control'
p1409
ssS'bootloader'
p1410
(dp1411
S'extended_fuses'
p1412
S'0xcb'
p1413
sS'high_fuses'
p1414
S'0xd8'
p1415
sS'low_fuses'
p1416
S'0xff'
p1417
sS'lock_bits'
p1418
S'0x2F'
p1419
sS'tool'
p1420
S'avrdude'
p1421
sS'file'
p1422
S'caterina-Arduino_Robot/Caterina-Robot-Control.hex'
p1423
sS'unlock_bits'
p1424
S'0x3F'
p1425
ssg407
g157
sS'name'
p1426
S'Arduino Robot Control'
p1427
sS'upload'
p1428
(dp1429
S'protocol'
p1430
S'avr109'
p1431
sS'disable_flushing'
p1432
S'true'
p1433
sS'tool'
p1434
S'avrdude'
p1435
sS'maximum_data_size'
p1436
S'2560'
p1437
sS'maximum_size'
p1438
S'28672'
p1439
sS'use_1200bps_touch'
p1440
S'true'
p1441
sS'speed'
p1442
S'57600'
p1443
sS'wait_for_upload_port'
p1444
S'true'
p1445
ssaa(lp1446
S'robotMotor'
p1447
a(dp1448
S'build'
p1449
(dp1450
S'core'
p1451
S'arduino'
p1452
sS'f_cpu'
p1453
S'16000000L'
p1454
sS'vid'
p1455
S'0x2341'
p1456
sS'usb_product'
p1457
S'"Robot Motor"'
p1458
sS'pid'
p1459
S'0x8039'
p1460
sS'extra_flags'
p1461
S'{build.usb_flags}'
p1462
sS'board'
p1463
S'AVR_ROBOT_MOTOR'
p1464
sS'mcu'
p1465
S'atmega32u4'
p1466
sS'variant'
p1467
S'robot_motor'
p1468
ssS'bootloader'
p1469
(dp1470
S'extended_fuses'
p1471
S'0xcb'
p1472
sS'high_fuses'
p1473
S'0xd8'
p1474
sS'low_fuses'
p1475
S'0xff'
p1476
sS'lock_bits'
p1477
S'0x2F'
p1478
sS'tool'
p1479
S'avrdude'
p1480
sS'file'
p1481
S'caterina-Arduino_Robot/Caterina-Robot-Motor.hex'
p1482
sS'unlock_bits'
p1483
S'0x3F'
p1484
ssg407
g157
sS'name'
p1485
S'Arduino Robot Motor'
p1486
sS'upload'
p1487
(dp1488
S'protocol'
p1489
S'avr109'
p1490
sS'disable_flushing'
p1491
S'true'
p1492
sS'tool'
p1493
S'avrdude'
p1494
sS'maximum_data_size'
p1495
S'2560'
p1496
sS'maximum_size'
p1497
S'28672'
p1498
sS'use_1200bps_touch'
p1499
S'true'
p1500
sS'speed'
p1501
S'57600'
p1502
sS'wait_for_upload_port'
p1503
S'true'
p1504
ssaatp1505
Rp1506
(dp1507
g327
S'uno'
p1508
sS'cpus'
p1509
(dp1510
sbtp1511
a(S'sam_boards.txt'
p1512
S'/usr/share/arduino/hardware/arduino/sam/boards.txt'
p1513
tp1514
a(S'recipe.size.regex'
p1515
g129
tp1516
a(S'recipe.c.o.pattern'
p1517
S'"/usr/share/arduino//hardware/tools/g++_arm_none_eabi/bin/arm-none-eabi-gcc" -c -g -Os -w -ffunction-sections -fdata-sections -nostdlib --param max-inline-insns-single=500 -Dprintf=iprintf -mcpu=cortex-m3 -DF_CPU=84000000L -DARDUINO=156 -DARDUINO_SAM_DUE -DARDUINO_ARCH_SAM -D__SAM3X8E__ -mthumb -DUSB_VID=0x2341 -DUSB_PID=0x003e -DUSBCON \'-DUSB_MANUFACTURER="Unknown"\' \'-DUSB_PRODUCT="Arduino Due"\' "-I/usr/share/arduino/hardware/arduino/sam/system/libsam" "-I/usr/share/arduino/hardware/arduino/sam/system/CMSIS/CMSIS/Include/" "-I/usr/share/arduino/hardware/arduino/sam/system/CMSIS/Device/ATMEL/" {includes} "{source_file}" -o "{object_file}"'
p1518
tp1519
a(S'build_dir'
p1520
S'.build/arduino_due_x_dbg'
p1521
tp1522
a(S'sam_platform.txt'
p1523
S'/usr/share/arduino/hardware/arduino/sam/platform.txt'
p1524
tp1525
a(S'cxx'
p1526
S'/usr/share/arduino/hardware/tools/g++_arm_none_eabi/bin/arm-none-eabi-g++'
p1527
tp1528
a(S'arduino_system_dir'
p1529
S'/usr/share/arduino/hardware/arduino/sam/system'
p1530
tp1531
a(S'arduino_base_dir'
p1532
S'/usr/share/arduino/'
p1533
tp1534
a(S'cflags'
p1535
g344
(cino.utils
SpaceList
p1536
c__builtin__
list
p1537
(lp1538
S'-I/usr/share/arduino/hardware/arduino/sam/cores/arduino'
p1539
aS'-I/usr/share/arduino/hardware/arduino/sam/variants/arduino_due_x'
p1540
atp1541
Rp1542
tp1543
a(S'avr_boards.txt'
p1544
S'/usr/share/arduino/hardware/arduino/avr/boards.txt'
p1545
tp1546
a(S'avr_platform.txt'
p1547
S'/usr/share/arduino/hardware/arduino/avr/platform.txt'
p1548
tp1549
a(S'recipe.size.pattern'
p1550
S'"/usr/share/arduino//hardware/tools/g++_arm_none_eabi/bin/arm-none-eabi-size" -A ".build/arduino_due_x_dbg/firmware.elf"'
p1551
tp1552
a(S'cxxflags'
p1553
g344
(g1536
g1537
(lp1554
tp1555
Rp1556
tp1557
a(S'arduino_variants_dir'
p1558
S'/usr/share/arduino/hardware/arduino/sam/variants'
p1559
tp1560
a(S'version.txt'
p1561
S'/usr/share/arduino/lib/version.txt'
p1562
tp1563
a(S'arduino_core_dir'
p1564
S'/usr/share/arduino/hardware/arduino/sam/cores/arduino'
p1565
tp1566
a(S'recipe.c.combine.pattern'
p1567
S'"/usr/share/arduino//hardware/tools/g++_arm_none_eabi/bin/arm-none-eabi-g++" -Os -Wl,--gc-sections -mcpu=cortex-m3 "-T/usr/share/arduino/hardware/arduino/sam/variants/arduino_due_x/linker_scripts/gcc/flash.ld" "-Wl,-Map,.build/arduino_due_x_dbg/firmware.map" -o ".build/arduino_due_x_dbg/firmware.elf" "-L.build/arduino_due_x_dbg" -lm -lgcc -mthumb -Wl,--cref -Wl,--check-sections -Wl,--gc-sections -Wl,--entry=Reset_Handler -Wl,--unresolved-symbols=report-all -Wl,--warn-common -Wl,--warn-section-align -Wl,--warn-unresolved-symbols -Wl,--start-group ".build/arduino_due_x_dbg/syscalls_sam3.c.o" {object_files} "/usr/share/arduino/hardware/arduino/sam/variants/arduino_due_x/libsam_sam3x8e_gcc_rel.a" ".build/arduino_due_x_dbg/{archive_file}" -Wl,--end-group'
p1568
tp1569
a(S'bin_path'
p1570
S'.build/arduino_due_x_dbg/firmware.bin'
p1571
tp1572
a(g338
g344
(g1536
g1537
(lp1573
tp1574
Rp1575
tp1576
a(S'recipe.objcopy.hex.pattern'
p1577
S'"/usr/share/arduino//hardware/tools/g++_arm_none_eabi/bin/arm-none-eabi-objcopy" -O binary ".build/arduino_due_x_dbg/firmware.elf" ".build/arduino_due_x_dbg/firmware.bin"'
p1578
tp1579
a(S'recipe.ar.pattern'
p1580
S'"/usr/share/arduino//hardware/tools/g++_arm_none_eabi/bin/arm-none-eabi-ar" rcs ".build/arduino_due_x_dbg/{archive_file}" "{object_file}"'
p1581
tp1582
a.